target datalayout = "e-m:e-p270:32:32-p271:32:32-p272:64:64-i64:64-i128:128-f80:128-n8:16:32:64-S128"
target triple = "x86_64-pc-linux-gnu"

%struct.ForEachState = type { ptr, i32 }
%struct.List = type { i32, i32, i32, ptr, [0 x %union.ListCell] }
%union.ListCell = type { ptr }
%struct.FmgrInfo = type { ptr, i32, i16, i8, i8, i8, ptr, ptr, ptr }
%struct.TSTokenTypeItem = type { i32, ptr }
%struct.TSParserCacheEntry = type { i32, i8, i32, i32, i32, i32, i32, %struct.FmgrInfo, %struct.FmgrInfo, %struct.FmgrInfo, %struct.FmgrInfo }
%struct.String = type { i32, ptr }
%struct.LexDescr = type { i32, ptr, ptr }

@.str.1 = private unnamed_addr constant [14 x i8] c"tsearchcmds.c\00", align 1
@.str.36 = private unnamed_addr constant [55 x i8] c"method lextype isn't defined for text search parser %u\00", align 1
@__func__.getTokenTypes = private unnamed_addr constant [14 x i8] c"getTokenTypes\00", align 1
@.str.37 = private unnamed_addr constant [31 x i8] c"token type \22%s\22 does not exist\00", align 1

; Function Attrs: nounwind uwtable
define internal zeroext i1 @tstoken_list_member(ptr noundef %0, ptr noundef %1) #0 {
  %3 = alloca ptr, align 8
  %4 = alloca ptr, align 8
  %5 = alloca ptr, align 8
  %6 = alloca i8, align 1
  %7 = alloca %struct.ForEachState, align 8
  %8 = alloca i32, align 4
  %9 = alloca ptr, align 8
  store ptr %0, ptr %3, align 8
  store ptr %1, ptr %4, align 8
  call void @llvm.lifetime.start.p0(i64 8, ptr %5) #10
  call void @llvm.lifetime.start.p0(i64 1, ptr %6) #10
  store i8 0, ptr %6, align 1
  call void @llvm.lifetime.start.p0(i64 16, ptr %7) #10
  %10 = getelementptr inbounds nuw %struct.ForEachState, ptr %7, i32 0, i32 0
  %11 = load ptr, ptr %4, align 8
  store ptr %11, ptr %10, align 8
  %12 = getelementptr inbounds nuw %struct.ForEachState, ptr %7, i32 0, i32 1
  store i32 0, ptr %12, align 8
  %13 = getelementptr i8, ptr %7, i64 12
  call void @llvm.memset.p0.i64(ptr align 4 %13, i8 0, i64 4, i1 false)
  br label %14

14:                                               ; preds = %54, %2
  %15 = getelementptr inbounds nuw %struct.ForEachState, ptr %7, i32 0, i32 0
  %16 = load ptr, ptr %15, align 8
  %17 = icmp ne ptr %16, null
  br i1 %17, label %18, label %35

18:                                               ; preds = %14
  %19 = getelementptr inbounds nuw %struct.ForEachState, ptr %7, i32 0, i32 1
  %20 = load i32, ptr %19, align 8
  %21 = getelementptr inbounds nuw %struct.ForEachState, ptr %7, i32 0, i32 0
  %22 = load ptr, ptr %21, align 8
  %23 = getelementptr inbounds nuw %struct.List, ptr %22, i32 0, i32 1
  %24 = load i32, ptr %23, align 4
  %25 = icmp slt i32 %20, %24
  br i1 %25, label %26, label %35

26:                                               ; preds = %18
  %27 = getelementptr inbounds nuw %struct.ForEachState, ptr %7, i32 0, i32 0
  %28 = load ptr, ptr %27, align 8
  %29 = getelementptr inbounds nuw %struct.List, ptr %28, i32 0, i32 3
  %30 = load ptr, ptr %29, align 8
  %31 = getelementptr inbounds nuw %struct.ForEachState, ptr %7, i32 0, i32 1
  %32 = load i32, ptr %31, align 8
  %33 = sext i32 %32 to i64
  %34 = getelementptr inbounds %union.ListCell, ptr %30, i64 %33
  store ptr %34, ptr %5, align 8
  br label %36

35:                                               ; preds = %18, %14
  store ptr null, ptr %5, align 8
  br label %36

36:                                               ; preds = %35, %26
  %37 = phi i32 [ 1, %26 ], [ 0, %35 ]
  %38 = icmp ne i32 %37, 0
  br i1 %38, label %40, label %39

39:                                               ; preds = %36
  store i32 2, ptr %8, align 4
  br label %58

40:                                               ; preds = %36
  call void @llvm.lifetime.start.p0(i64 8, ptr %9) #10
  %41 = load ptr, ptr %5, align 8
  %42 = load ptr, ptr %41, align 8
  store ptr %42, ptr %9, align 8
  %43 = load ptr, ptr %3, align 8
  %44 = load ptr, ptr %9, align 8
  %45 = getelementptr inbounds nuw %struct.TSTokenTypeItem, ptr %44, i32 0, i32 1
  %46 = load ptr, ptr %45, align 8
  %47 = call i32 @strcmp(ptr noundef %43, ptr noundef %46) #12
  %48 = icmp eq i32 %47, 0
  br i1 %48, label %49, label %50

49:                                               ; preds = %40
  store i8 1, ptr %6, align 1
  store i32 2, ptr %8, align 4
  br label %51

50:                                               ; preds = %40
  store i32 0, ptr %8, align 4
  br label %51

51:                                               ; preds = %50, %49
  call void @llvm.lifetime.end.p0(i64 8, ptr %9) #10
  %52 = load i32, ptr %8, align 4
  switch i32 %52, label %58 [
    i32 0, label %53
  ]

53:                                               ; preds = %51
  br label %54

54:                                               ; preds = %53
  %55 = getelementptr inbounds nuw %struct.ForEachState, ptr %7, i32 0, i32 1
  %56 = load i32, ptr %55, align 8
  %57 = add i32 %56, 1
  store i32 %57, ptr %55, align 8
  br label %14, !llvm.loop !34

58:                                               ; preds = %51, %39
  call void @llvm.lifetime.end.p0(i64 16, ptr %7) #10
  br label %59

59:                                               ; preds = %58
  %60 = load i8, ptr %6, align 1, !range !7, !noundef !8
  %61 = trunc i8 %60 to i1
  store i32 1, ptr %8, align 4
  call void @llvm.lifetime.end.p0(i64 1, ptr %6) #10
  call void @llvm.lifetime.end.p0(i64 8, ptr %5) #10
  ret i1 %61
}

; Function Attrs: inlinehint nounwind uwtable
define internal ptr @DatumGetPointer(i64 noundef %0) #5 {
  %2 = alloca i64, align 8
  store i64 %0, ptr %2, align 8
  %3 = load i64, ptr %2, align 8
  %4 = inttoptr i64 %3 to ptr
  ret ptr %4
}

; Function Attrs: inlinehint nounwind uwtable
define internal i32 @list_length(ptr noundef %0) #5 {
  %2 = alloca ptr, align 8
  store ptr %0, ptr %2, align 8
  %3 = load ptr, ptr %2, align 8
  %4 = icmp ne ptr %3, null
  br i1 %4, label %5, label %9

5:                                                ; preds = %1
  %6 = load ptr, ptr %2, align 8
  %7 = getelementptr inbounds nuw %struct.List, ptr %6, i32 0, i32 1
  %8 = load i32, ptr %7, align 4
  br label %10

9:                                                ; preds = %1
  br label %10

10:                                               ; preds = %9, %5
  %11 = phi i32 [ %8, %5 ], [ 0, %9 ]
  ret i32 %11
}

; Function Attrs: nounwind uwtable
define internal ptr @getTokenTypes(i32 noundef %0, ptr noundef %1) #0 {
  %3 = alloca ptr, align 8
  %4 = alloca i32, align 4
  %5 = alloca ptr, align 8
  %6 = alloca ptr, align 8
  %7 = alloca ptr, align 8
  %8 = alloca ptr, align 8
  %9 = alloca i32, align 4
  %10 = alloca ptr, align 8
  %11 = alloca i32, align 4
  %12 = alloca %struct.ForEachState, align 8
  %13 = alloca ptr, align 8
  %14 = alloca i8, align 1
  %15 = alloca i32, align 4
  %16 = alloca ptr, align 8
  store i32 %0, ptr %4, align 4
  store ptr %1, ptr %5, align 8
  call void @llvm.lifetime.start.p0(i64 8, ptr %6) #10
  %17 = load i32, ptr %4, align 4
  %18 = call ptr @lookup_ts_parser_cache(i32 noundef %17)
  store ptr %18, ptr %6, align 8
  call void @llvm.lifetime.start.p0(i64 8, ptr %7) #10
  call void @llvm.lifetime.start.p0(i64 8, ptr %8) #10
  store ptr null, ptr %8, align 8
  call void @llvm.lifetime.start.p0(i64 4, ptr %9) #10
  call void @llvm.lifetime.start.p0(i64 8, ptr %10) #10
  %19 = load ptr, ptr %5, align 8
  %20 = call i32 @list_length(ptr noundef %19)
  store i32 %20, ptr %9, align 4
  %21 = load i32, ptr %9, align 4
  %22 = icmp eq i32 %21, 0
  br i1 %22, label %23, label %24

23:                                               ; preds = %2
  store ptr null, ptr %3, align 8
  store i32 1, ptr %11, align 4
  br label %162

24:                                               ; preds = %2
  %25 = load ptr, ptr %6, align 8
  %26 = getelementptr inbounds nuw %struct.TSParserCacheEntry, ptr %25, i32 0, i32 6
  %27 = load i32, ptr %26, align 8
  %28 = icmp ne i32 %27, 0
  br i1 %28, label %41, label %29

29:                                               ; preds = %24
  br label %30

30:                                               ; preds = %29
  br i1 true, label %31, label %33

31:                                               ; preds = %30
  %32 = call zeroext i1 @errstart_cold(i32 noundef 21, ptr noundef null) #11
  br i1 %32, label %35, label %38

33:                                               ; preds = %30
  %34 = call zeroext i1 @errstart(i32 noundef 21, ptr noundef null)
  br i1 %34, label %35, label %38

35:                                               ; preds = %33, %31
  %36 = load i32, ptr %4, align 4
  %37 = call i32 (ptr, ...) @errmsg_internal(ptr noundef @.str.36, i32 noundef %36)
  call void @errfinish(ptr noundef @.str.1, i32 noundef 1243, ptr noundef @__func__.getTokenTypes)
  br label %38

38:                                               ; preds = %35, %33, %31
  unreachable

39:                                               ; No predecessors!
  br label %40

40:                                               ; preds = %39
  br label %41

41:                                               ; preds = %40, %24
  %42 = load ptr, ptr %6, align 8
  %43 = getelementptr inbounds nuw %struct.TSParserCacheEntry, ptr %42, i32 0, i32 6
  %44 = load i32, ptr %43, align 8
  %45 = call i64 @OidFunctionCall1Coll(i32 noundef %44, i32 noundef 0, i64 noundef 0)
  %46 = call ptr @DatumGetPointer(i64 noundef %45)
  store ptr %46, ptr %7, align 8
  call void @llvm.lifetime.start.p0(i64 16, ptr %12) #10
  %47 = getelementptr inbounds nuw %struct.ForEachState, ptr %12, i32 0, i32 0
  %48 = load ptr, ptr %5, align 8
  store ptr %48, ptr %47, align 8
  %49 = getelementptr inbounds nuw %struct.ForEachState, ptr %12, i32 0, i32 1
  store i32 0, ptr %49, align 8
  %50 = getelementptr i8, ptr %12, i64 12
  call void @llvm.memset.p0.i64(ptr align 4 %50, i8 0, i64 4, i1 false)
  br label %51

51:                                               ; preds = %156, %41
  %52 = getelementptr inbounds nuw %struct.ForEachState, ptr %12, i32 0, i32 0
  %53 = load ptr, ptr %52, align 8
  %54 = icmp ne ptr %53, null
  br i1 %54, label %55, label %72

55:                                               ; preds = %51
  %56 = getelementptr inbounds nuw %struct.ForEachState, ptr %12, i32 0, i32 1
  %57 = load i32, ptr %56, align 8
  %58 = getelementptr inbounds nuw %struct.ForEachState, ptr %12, i32 0, i32 0
  %59 = load ptr, ptr %58, align 8
  %60 = getelementptr inbounds nuw %struct.List, ptr %59, i32 0, i32 1
  %61 = load i32, ptr %60, align 4
  %62 = icmp slt i32 %57, %61
  br i1 %62, label %63, label %72

63:                                               ; preds = %55
  %64 = getelementptr inbounds nuw %struct.ForEachState, ptr %12, i32 0, i32 0
  %65 = load ptr, ptr %64, align 8
  %66 = getelementptr inbounds nuw %struct.List, ptr %65, i32 0, i32 3
  %67 = load ptr, ptr %66, align 8
  %68 = getelementptr inbounds nuw %struct.ForEachState, ptr %12, i32 0, i32 1
  %69 = load i32, ptr %68, align 8
  %70 = sext i32 %69 to i64
  %71 = getelementptr inbounds %union.ListCell, ptr %67, i64 %70
  store ptr %71, ptr %10, align 8
  br label %73

72:                                               ; preds = %55, %51
  store ptr null, ptr %10, align 8
  br label %73

73:                                               ; preds = %72, %63
  %74 = phi i32 [ 1, %63 ], [ 0, %72 ]
  %75 = icmp ne i32 %74, 0
  br i1 %75, label %77, label %76

76:                                               ; preds = %73
  store i32 4, ptr %11, align 4
  call void @llvm.lifetime.end.p0(i64 16, ptr %12) #10
  br label %160

77:                                               ; preds = %73
  call void @llvm.lifetime.start.p0(i64 8, ptr %13) #10
  %78 = load ptr, ptr %10, align 8
  %79 = load ptr, ptr %78, align 8
  store ptr %79, ptr %13, align 8
  call void @llvm.lifetime.start.p0(i64 1, ptr %14) #10
  store i8 0, ptr %14, align 1
  call void @llvm.lifetime.start.p0(i64 4, ptr %15) #10
  %80 = load ptr, ptr %13, align 8
  %81 = getelementptr inbounds nuw %struct.String, ptr %80, i32 0, i32 1
  %82 = load ptr, ptr %81, align 8
  %83 = load ptr, ptr %8, align 8
  %84 = call zeroext i1 @tstoken_list_member(ptr noundef %82, ptr noundef %83)
  br i1 %84, label %85, label %86

85:                                               ; preds = %77
  store i32 6, ptr %11, align 4
  br label %153

86:                                               ; preds = %77
  store i32 0, ptr %15, align 4
  br label %87

87:                                               ; preds = %131, %86
  %88 = load ptr, ptr %7, align 8
  %89 = icmp ne ptr %88, null
  br i1 %89, label %90, label %98

90:                                               ; preds = %87
  %91 = load ptr, ptr %7, align 8
  %92 = load i32, ptr %15, align 4
  %93 = sext i32 %92 to i64
  %94 = getelementptr inbounds %struct.LexDescr, ptr %91, i64 %93
  %95 = getelementptr inbounds nuw %struct.LexDescr, ptr %94, i32 0, i32 0
  %96 = load i32, ptr %95, align 8
  %97 = icmp ne i32 %96, 0
  br label %98

98:                                               ; preds = %90, %87
  %99 = phi i1 [ false, %87 ], [ %97, %90 ]
  br i1 %99, label %100, label %134

100:                                              ; preds = %98
  %101 = load ptr, ptr %13, align 8
  %102 = getelementptr inbounds nuw %struct.String, ptr %101, i32 0, i32 1
  %103 = load ptr, ptr %102, align 8
  %104 = load ptr, ptr %7, align 8
  %105 = load i32, ptr %15, align 4
  %106 = sext i32 %105 to i64
  %107 = getelementptr inbounds %struct.LexDescr, ptr %104, i64 %106
  %108 = getelementptr inbounds nuw %struct.LexDescr, ptr %107, i32 0, i32 1
  %109 = load ptr, ptr %108, align 8
  %110 = call i32 @strcmp(ptr noundef %103, ptr noundef %109) #12
  %111 = icmp eq i32 %110, 0
  br i1 %111, label %112, label %131

112:                                              ; preds = %100
  call void @llvm.lifetime.start.p0(i64 8, ptr %16) #10
  %113 = call ptr @palloc0(i64 noundef 16)
  store ptr %113, ptr %16, align 8
  %114 = load ptr, ptr %7, align 8
  %115 = load i32, ptr %15, align 4
  %116 = sext i32 %115 to i64
  %117 = getelementptr inbounds %struct.LexDescr, ptr %114, i64 %116
  %118 = getelementptr inbounds nuw %struct.LexDescr, ptr %117, i32 0, i32 0
  %119 = load i32, ptr %118, align 8
  %120 = load ptr, ptr %16, align 8
  %121 = getelementptr inbounds nuw %struct.TSTokenTypeItem, ptr %120, i32 0, i32 0
  store i32 %119, ptr %121, align 8
  %122 = load ptr, ptr %13, align 8
  %123 = getelementptr inbounds nuw %struct.String, ptr %122, i32 0, i32 1
  %124 = load ptr, ptr %123, align 8
  %125 = call ptr @pstrdup(ptr noundef %124)
  %126 = load ptr, ptr %16, align 8
  %127 = getelementptr inbounds nuw %struct.TSTokenTypeItem, ptr %126, i32 0, i32 1
  store ptr %125, ptr %127, align 8
  %128 = load ptr, ptr %8, align 8
  %129 = load ptr, ptr %16, align 8
  %130 = call ptr @lappend(ptr noundef %128, ptr noundef %129)
  store ptr %130, ptr %8, align 8
  store i8 1, ptr %14, align 1
  store i32 8, ptr %11, align 4
  call void @llvm.lifetime.end.p0(i64 8, ptr %16) #10
  br label %134

131:                                              ; preds = %100
  %132 = load i32, ptr %15, align 4
  %133 = add i32 %132, 1
  store i32 %133, ptr %15, align 4
  br label %87, !llvm.loop !32

134:                                              ; preds = %112, %98
  %135 = load i8, ptr %14, align 1, !range !7, !noundef !8
  %136 = trunc i8 %135 to i1
  br i1 %136, label %152, label %137

137:                                              ; preds = %134
  br label %138

138:                                              ; preds = %137
  br i1 true, label %139, label %141

139:                                              ; preds = %138
  %140 = call zeroext i1 @errstart_cold(i32 noundef 21, ptr noundef null) #11
  br i1 %140, label %143, label %149

141:                                              ; preds = %138
  %142 = call zeroext i1 @errstart(i32 noundef 21, ptr noundef null)
  br i1 %142, label %143, label %149

143:                                              ; preds = %141, %139
  %144 = call i32 @errcode(i32 noundef 50856066)
  %145 = load ptr, ptr %13, align 8
  %146 = getelementptr inbounds nuw %struct.String, ptr %145, i32 0, i32 1
  %147 = load ptr, ptr %146, align 8
  %148 = call i32 (ptr, ...) @errmsg(ptr noundef @.str.37, ptr noundef %147)
  call void @errfinish(ptr noundef @.str.1, i32 noundef 1278, ptr noundef @__func__.getTokenTypes)
  br label %149

149:                                              ; preds = %143, %141, %139
  unreachable

150:                                              ; No predecessors!
  br label %151

151:                                              ; preds = %150
  br label %152

152:                                              ; preds = %151, %134
  store i32 0, ptr %11, align 4
  br label %153

153:                                              ; preds = %152, %85
  call void @llvm.lifetime.end.p0(i64 4, ptr %15) #10
  call void @llvm.lifetime.end.p0(i64 1, ptr %14) #10
  call void @llvm.lifetime.end.p0(i64 8, ptr %13) #10
  %154 = load i32, ptr %11, align 4
  switch i32 %154, label %164 [
    i32 0, label %155
    i32 6, label %156
  ]

155:                                              ; preds = %153
  br label %156

156:                                              ; preds = %155, %153
  %157 = getelementptr inbounds nuw %struct.ForEachState, ptr %12, i32 0, i32 1
  %158 = load i32, ptr %157, align 8
  %159 = add i32 %158, 1
  store i32 %159, ptr %157, align 8
  br label %51, !llvm.loop !33

160:                                              ; preds = %76
  %161 = load ptr, ptr %8, align 8
  store ptr %161, ptr %3, align 8
  store i32 1, ptr %11, align 4
  br label %162

162:                                              ; preds = %160, %23
  call void @llvm.lifetime.end.p0(i64 8, ptr %10) #10
  call void @llvm.lifetime.end.p0(i64 4, ptr %9) #10
  call void @llvm.lifetime.end.p0(i64 8, ptr %8) #10
  call void @llvm.lifetime.end.p0(i64 8, ptr %7) #10
  call void @llvm.lifetime.end.p0(i64 8, ptr %6) #10
  %163 = load ptr, ptr %3, align 8
  ret ptr %163

164:                                              ; preds = %153
  unreachable
}