; Function Attrs: nounwind uwtable
define internal fastcc ptr @getTokenTypes(i32 noundef %0, ptr noundef readonly captures(address_is_null) %1) unnamed_addr #0 {
  %3 = tail call ptr @lookup_ts_parser_cache(i32 noundef %0) #10
  %.not.i = icmp eq ptr %1, null
  br i1 %.not.i, label %list_length.exit.thread, label %list_length.exit

list_length.exit:                                 ; preds = %2
  %4 = getelementptr inbounds nuw i8, ptr %1, i64 4
  %5 = load i32, ptr %4, align 4
  %6 = icmp eq i32 %5, 0
  br i1 %6, label %list_length.exit.thread, label %7

7:                                                ; preds = %list_length.exit
  %8 = getelementptr inbounds nuw i8, ptr %3, i64 24
  %9 = load i32, ptr %8, align 8
  %.not = icmp eq i32 %9, 0
  br i1 %.not, label %10, label %13

10:                                               ; preds = %7
  %11 = tail call zeroext i1 @errstart_cold(i32 noundef 21, ptr noundef null) #11
  tail call void @llvm.assume(i1 %11)
  %12 = tail call i32 (ptr, ...) @errmsg_internal(ptr noundef nonnull @.str.36, i32 noundef %0) #10
  tail call void @errfinish(ptr noundef nonnull @.str.1, i32 noundef 1243, ptr noundef nonnull @__func__.getTokenTypes) #10
  unreachable

13:                                               ; preds = %7
  %14 = tail call i64 @OidFunctionCall1Coll(i32 noundef %9, i32 noundef 0, i64 noundef 0) #10
  %.fr = freeze i64 %14
  %15 = inttoptr i64 %.fr to ptr
  %16 = load i32, ptr %4, align 4
  %17 = icmp sgt i32 %16, 0
  br i1 %17, label %.lr.ph68, label %list_length.exit.thread

.lr.ph68:                                         ; preds = %13
  %18 = getelementptr inbounds nuw i8, ptr %1, i64 16
  %.not40 = icmp eq i64 %.fr, 0
  br i1 %.not40, label %.lr.ph68.split.us, label %.lr.ph68.split

.lr.ph68.split.us:                                ; preds = %.lr.ph68
  %19 = load ptr, ptr %18, align 8
  %20 = load ptr, ptr %19, align 8
  %21 = getelementptr inbounds nuw i8, ptr %20, i64 8
  br label %._crit_edge

.lr.ph68.split:                                   ; preds = %.lr.ph68, %tstoken_list_member.exit.thread
  %22 = phi i32 [ %61, %tstoken_list_member.exit.thread ], [ %16, %.lr.ph68 ]
  %indvars.iv = phi i64 [ %indvars.iv.next, %tstoken_list_member.exit.thread ], [ 0, %.lr.ph68 ]
  %.03366 = phi ptr [ %.1, %tstoken_list_member.exit.thread ], [ null, %.lr.ph68 ]
  %23 = load ptr, ptr %18, align 8
  %24 = getelementptr inbounds nuw %union.ListCell, ptr %23, i64 %indvars.iv
  %25 = load ptr, ptr %24, align 8
  %26 = getelementptr inbounds nuw i8, ptr %25, i64 8
  %27 = load ptr, ptr %26, align 8
  %28 = getelementptr inbounds nuw i8, ptr %.03366, i64 16
  %.not.i42 = icmp eq ptr %.03366, null
  br i1 %.not.i42, label %.lr.ph.split, label %.lr.ph.i

.lr.ph.i:                                         ; preds = %.lr.ph68.split
  %29 = getelementptr inbounds nuw i8, ptr %.03366, i64 4
  %30 = load i32, ptr %29, align 4
  %31 = icmp sgt i32 %30, 0
  br i1 %31, label %.lr.ph24.i, label %.lr.ph.split

.lr.ph24.i:                                       ; preds = %.lr.ph.i
  %32 = load ptr, ptr %28, align 8
  %wide.trip.count.i = zext nneg i32 %30 to i64
  br label %34

33:                                               ; preds = %34
  %indvars.iv.next.i = add nuw nsw i64 %indvars.iv.i, 1
  %exitcond.not.i = icmp eq i64 %indvars.iv.next.i, %wide.trip.count.i
  br i1 %exitcond.not.i, label %.lr.ph.split, label %34

34:                                               ; preds = %33, %.lr.ph24.i
  %indvars.iv.i = phi i64 [ 0, %.lr.ph24.i ], [ %indvars.iv.next.i, %33 ]
  %35 = getelementptr inbounds nuw %union.ListCell, ptr %32, i64 %indvars.iv.i
  %36 = load ptr, ptr %35, align 8
  %37 = getelementptr inbounds nuw i8, ptr %36, i64 8
  %38 = load ptr, ptr %37, align 8
  %39 = tail call i32 @strcmp(ptr noundef nonnull readonly dereferenceable(1) %27, ptr noundef nonnull dereferenceable(1) %38) #12
  %.not13.i = icmp eq i32 %39, 0
  br i1 %.not13.i, label %tstoken_list_member.exit.thread, label %33

.lr.ph.split:                                     ; preds = %33, %.lr.ph.i, %.lr.ph68.split
  %40 = load i32, ptr %15, align 8
  %.not4160 = icmp eq i32 %40, 0
  br i1 %.not4160, label %._crit_edge, label %.lr.ph62

41:                                               ; preds = %.lr.ph62
  %42 = add i32 %.0315061, 1
  %43 = sext i32 %42 to i64
  %44 = getelementptr inbounds %struct.LexDescr, ptr %15, i64 %43
  %45 = load i32, ptr %44, align 8
  %.not41 = icmp eq i32 %45, 0
  br i1 %.not41, label %._crit_edge, label %.lr.ph62

.lr.ph62:                                         ; preds = %.lr.ph.split, %41
  %46 = phi ptr [ %44, %41 ], [ %15, %.lr.ph.split ]
  %.0315061 = phi i32 [ %42, %41 ], [ 0, %.lr.ph.split ]
  %47 = getelementptr inbounds nuw i8, ptr %46, i64 8
  %48 = load ptr, ptr %47, align 8
  %49 = tail call i32 @strcmp(ptr noundef nonnull dereferenceable(1) %27, ptr noundef nonnull dereferenceable(1) %48) #12
  %50 = icmp eq i32 %49, 0
  br i1 %50, label %.critedge, label %41

.critedge:                                        ; preds = %.lr.ph62
  %51 = tail call ptr @palloc0(i64 noundef 16) #10
  %52 = load i32, ptr %46, align 8
  store i32 %52, ptr %51, align 8
  %53 = load ptr, ptr %26, align 8
  %54 = tail call ptr @pstrdup(ptr noundef %53) #10
  %55 = getelementptr inbounds nuw i8, ptr %51, i64 8
  store ptr %54, ptr %55, align 8
  %56 = tail call ptr @lappend(ptr noundef %.03366, ptr noundef nonnull %51) #10
  %.pre = load i32, ptr %4, align 4
  br label %tstoken_list_member.exit.thread

._crit_edge:                                      ; preds = %.lr.ph.split, %41, %.lr.ph68.split.us
  %.lcssa49 = phi ptr [ %21, %.lr.ph68.split.us ], [ %26, %41 ], [ %26, %.lr.ph.split ]
  %57 = tail call zeroext i1 @errstart_cold(i32 noundef 21, ptr noundef null) #11
  tail call void @llvm.assume(i1 %57)
  %58 = tail call i32 @errcode(i32 noundef 50856066) #10
  %59 = load ptr, ptr %.lcssa49, align 8
  %60 = tail call i32 (ptr, ...) @errmsg(ptr noundef nonnull @.str.37, ptr noundef %59) #10
  tail call void @errfinish(ptr noundef nonnull @.str.1, i32 noundef 1278, ptr noundef nonnull @__func__.getTokenTypes) #10
  unreachable

tstoken_list_member.exit.thread:                  ; preds = %34, %.critedge
  %61 = phi i32 [ %.pre, %.critedge ], [ %22, %34 ]
  %.1 = phi ptr [ %56, %.critedge ], [ %.03366, %34 ]
  %indvars.iv.next = add nuw nsw i64 %indvars.iv, 1
  %62 = sext i32 %61 to i64
  %63 = icmp slt i64 %indvars.iv.next, %62
  br i1 %63, label %.lr.ph68.split, label %list_length.exit.thread, !llvm.loop !20

list_length.exit.thread:                          ; preds = %tstoken_list_member.exit.thread, %13, %2, %list_length.exit
  %.0 = phi ptr [ null, %list_length.exit ], [ null, %2 ], [ null, %13 ], [ %.1, %tstoken_list_member.exit.thread ]
  ret ptr %.0
}